; Function Attrs: nounwind uwtable
define hidden ptr @_pcre2_memctl_malloc_8(i64 noundef %0, ptr noundef readonly captures(address_is_null) %1) local_unnamed_addr #0 {
  %3 = icmp eq ptr %1, null
  br i1 %3, label %4, label %.thread

4:                                                ; preds = %2
  %5 = tail call noalias ptr @malloc(i64 noundef %0) #11
  %6 = icmp eq ptr %5, null
  br i1 %6, label %15, label %12

.thread:                                          ; preds = %2
  %7 = load ptr, ptr %1, align 8, !tbaa !4
  %8 = getelementptr inbounds nuw i8, ptr %1, i64 16
  %9 = load ptr, ptr %8, align 8, !tbaa !9
  %10 = tail call ptr %7(i64 noundef %0, ptr noundef %9) #12
  %11 = icmp eq ptr %10, null
  br i1 %11, label %15, label %.thread16

12:                                               ; preds = %4
  store ptr @default_malloc, ptr %5, align 8, !tbaa !4
  %13 = getelementptr inbounds nuw i8, ptr %5, i64 8
  store ptr @default_free, ptr %13, align 8, !tbaa !10
  %14 = getelementptr inbounds nuw i8, ptr %5, i64 16
  store ptr null, ptr %14, align 8, !tbaa !9
  br label %15

.thread16:                                        ; preds = %.thread
  tail call void @llvm.memcpy.p0.p0.i64(ptr noundef nonnull align 8 dereferenceable(24) %10, ptr noundef nonnull align 8 dereferenceable(24) %1, i64 24, i1 false), !tbaa.struct !11
  br label %15

15:                                               ; preds = %.thread, %12, %.thread16, %4
  %.0 = phi ptr [ null, %4 ], [ %10, %.thread16 ], [ %5, %12 ], [ null, %.thread ]
  ret ptr %.0
}